; Function Attrs: mustprogress nounwind uwtable
define void @_ZN4toku16locktree_manager17escalator_destroyEv(ptr noundef nonnull align 8 dereferenceable(392) %0) local_unnamed_addr #2 align 2 {
  %2 = getelementptr inbounds nuw i8, ptr %0, i64 280
  %3 = getelementptr inbounds nuw i8, ptr %0, i64 328
  %4 = tail call i32 @pthread_cond_destroy(ptr noundef nonnull %3) #14
  %5 = tail call i32 @pthread_mutex_destroy(ptr noundef nonnull align 8 dereferenceable(105) %2) #14
  %6 = getelementptr inbounds nuw i8, ptr %0, i64 176
  %7 = tail call i32 @pthread_mutex_destroy(ptr noundef nonnull %6) #14
  ret void
}